target datalayout = "e-m:e-p270:32:32-p271:32:32-p272:64:64-i64:64-i128:128-f80:128-n8:16:32:64-S128"
target triple = "x86_64-pc-linux-gnu"

%struct.RI_QueryKey = type { i32, i32 }
%struct.RI_QueryHashEntry = type { %struct.RI_QueryKey, ptr }
%struct.HASHCTL = type { i64, i64, i64, i64, i64, i64, ptr, ptr, ptr, ptr, ptr, ptr }

@ri_constraint_cache = internal global ptr null, align 8
@.str.78 = private unnamed_addr constant [20 x i8] c"RI constraint cache\00", align 1
@.str.79 = private unnamed_addr constant [15 x i8] c"RI query cache\00", align 1
@ri_query_cache = internal global ptr null, align 8
@.str.80 = private unnamed_addr constant [17 x i8] c"RI compare cache\00", align 1
@ri_compare_cache = internal global ptr null, align 8

; Function Attrs: nounwind uwtable
define internal void @ri_InitHashTables() #0 {
  %1 = alloca %struct.HASHCTL, align 8
  call void @llvm.lifetime.start.p0(i64 96, ptr %1) #9
  %2 = getelementptr inbounds nuw %struct.HASHCTL, ptr %1, i32 0, i32 4
  store i64 4, ptr %2, align 8
  %3 = getelementptr inbounds nuw %struct.HASHCTL, ptr %1, i32 0, i32 5
  store i64 712, ptr %3, align 8
  %4 = call ptr @hash_create(ptr noundef @.str.78, i64 noundef 64, ptr noundef %1, i32 noundef 40)
  store ptr %4, ptr @ri_constraint_cache, align 8
  call void @CacheRegisterSyscacheCallback(i32 noundef 19, ptr noundef @InvalidateConstraintCacheCallBack, i64 noundef 0)
  %5 = getelementptr inbounds nuw %struct.HASHCTL, ptr %1, i32 0, i32 4
  store i64 8, ptr %5, align 8
  %6 = getelementptr inbounds nuw %struct.HASHCTL, ptr %1, i32 0, i32 5
  store i64 16, ptr %6, align 8
  %7 = call ptr @hash_create(ptr noundef @.str.79, i64 noundef 256, ptr noundef %1, i32 noundef 40)
  store ptr %7, ptr @ri_query_cache, align 8
  %8 = getelementptr inbounds nuw %struct.HASHCTL, ptr %1, i32 0, i32 4
  store i64 8, ptr %8, align 8
  %9 = getelementptr inbounds nuw %struct.HASHCTL, ptr %1, i32 0, i32 5
  store i64 112, ptr %9, align 8
  %10 = call ptr @hash_create(ptr noundef @.str.80, i64 noundef 256, ptr noundef %1, i32 noundef 40)
  store ptr %10, ptr @ri_compare_cache, align 8
  call void @llvm.lifetime.end.p0(i64 96, ptr %1) #9
  ret void
}

; Function Attrs: nounwind uwtable
define internal ptr @ri_FetchPreparedPlan(ptr noundef %0) #0 {
  %2 = alloca ptr, align 8
  %3 = alloca ptr, align 8
  %4 = alloca ptr, align 8
  %5 = alloca ptr, align 8
  %6 = alloca i32, align 4
  store ptr %0, ptr %3, align 8
  call void @llvm.lifetime.start.p0(i64 8, ptr %4) #9
  call void @llvm.lifetime.start.p0(i64 8, ptr %5) #9
  %7 = load ptr, ptr @ri_query_cache, align 8
  %8 = icmp ne ptr %7, null
  br i1 %8, label %10, label %9

9:                                                ; preds = %1
  call void @ri_InitHashTables()
  br label %10

10:                                               ; preds = %9, %1
  %11 = load ptr, ptr @ri_query_cache, align 8
  %12 = load ptr, ptr %3, align 8
  %13 = call ptr @hash_search(ptr noundef %11, ptr noundef %12, i32 noundef 0, ptr noundef null)
  store ptr %13, ptr %4, align 8
  %14 = load ptr, ptr %4, align 8
  %15 = icmp eq ptr %14, null
  br i1 %15, label %16, label %17

16:                                               ; preds = %10
  store ptr null, ptr %2, align 8
  store i32 1, ptr %6, align 4
  br label %37

17:                                               ; preds = %10
  %18 = load ptr, ptr %4, align 8
  %19 = getelementptr inbounds nuw %struct.RI_QueryHashEntry, ptr %18, i32 0, i32 1
  %20 = load ptr, ptr %19, align 8
  store ptr %20, ptr %5, align 8
  %21 = load ptr, ptr %5, align 8
  %22 = icmp ne ptr %21, null
  br i1 %22, label %23, label %28

23:                                               ; preds = %17
  %24 = load ptr, ptr %5, align 8
  %25 = call zeroext i1 @SPI_plan_is_valid(ptr noundef %24)
  br i1 %25, label %26, label %28

26:                                               ; preds = %23
  %27 = load ptr, ptr %5, align 8
  store ptr %27, ptr %2, align 8
  store i32 1, ptr %6, align 4
  br label %37

28:                                               ; preds = %23, %17
  %29 = load ptr, ptr %4, align 8
  %30 = getelementptr inbounds nuw %struct.RI_QueryHashEntry, ptr %29, i32 0, i32 1
  store ptr null, ptr %30, align 8
  %31 = load ptr, ptr %5, align 8
  %32 = icmp ne ptr %31, null
  br i1 %32, label %33, label %36

33:                                               ; preds = %28
  %34 = load ptr, ptr %5, align 8
  %35 = call i32 @SPI_freeplan(ptr noundef %34)
  br label %36

36:                                               ; preds = %33, %28
  store ptr null, ptr %2, align 8
  store i32 1, ptr %6, align 4
  br label %37

37:                                               ; preds = %36, %26, %16
  call void @llvm.lifetime.end.p0(i64 8, ptr %5) #9
  call void @llvm.lifetime.end.p0(i64 8, ptr %4) #9
  %38 = load ptr, ptr %2, align 8
  ret ptr %38
}