; Function Attrs: nounwind uwtable
define internal fastcc ptr @ri_FetchPreparedPlan(ptr noundef nonnull %0) unnamed_addr #0 {
  %2 = alloca %struct.HASHCTL, align 8
  %3 = load ptr, ptr @ri_query_cache, align 8
  %.not = icmp eq ptr %3, null
  br i1 %.not, label %4, label %10

4:                                                ; preds = %1
  call void @llvm.lifetime.start.p0(i64 96, ptr nonnull %2) #11
  %5 = getelementptr inbounds nuw i8, ptr %2, i64 32
  store i64 4, ptr %5, align 8
  %6 = getelementptr inbounds nuw i8, ptr %2, i64 40
  store i64 712, ptr %6, align 8
  %7 = call ptr @hash_create(ptr noundef nonnull @.str.78, i64 noundef 64, ptr noundef nonnull %2, i32 noundef 40) #11
  store ptr %7, ptr @ri_constraint_cache, align 8
  call void @CacheRegisterSyscacheCallback(i32 noundef 19, ptr noundef nonnull @InvalidateConstraintCacheCallBack, i64 noundef 0) #11
  store i64 8, ptr %5, align 8
  store i64 16, ptr %6, align 8
  %8 = call ptr @hash_create(ptr noundef nonnull @.str.79, i64 noundef 256, ptr noundef nonnull %2, i32 noundef 40) #11
  store ptr %8, ptr @ri_query_cache, align 8
  store i64 8, ptr %5, align 8
  store i64 112, ptr %6, align 8
  %9 = call ptr @hash_create(ptr noundef nonnull @.str.80, i64 noundef 256, ptr noundef nonnull %2, i32 noundef 40) #11
  store ptr %9, ptr @ri_compare_cache, align 8
  call void @llvm.lifetime.end.p0(i64 96, ptr nonnull %2) #11
  %.pre = load ptr, ptr @ri_query_cache, align 8
  br label %10

10:                                               ; preds = %4, %1
  %11 = phi ptr [ %.pre, %4 ], [ %3, %1 ]
  %12 = call ptr @hash_search(ptr noundef %11, ptr noundef nonnull %0, i32 noundef 0, ptr noundef null) #11
  %13 = icmp eq ptr %12, null
  br i1 %13, label %.critedge, label %14

14:                                               ; preds = %10
  %15 = getelementptr inbounds nuw i8, ptr %12, i64 8
  %16 = load ptr, ptr %15, align 8
  %.not12 = icmp eq ptr %16, null
  br i1 %.not12, label %.critedge, label %17

17:                                               ; preds = %14
  %18 = call zeroext i1 @SPI_plan_is_valid(ptr noundef nonnull %16) #11
  br i1 %18, label %.critedge, label %19

19:                                               ; preds = %17
  store ptr null, ptr %15, align 8
  %20 = call i32 @SPI_freeplan(ptr noundef nonnull %16) #11
  br label %.critedge

.critedge:                                        ; preds = %14, %19, %17, %10
  %.0 = phi ptr [ null, %10 ], [ %16, %17 ], [ null, %19 ], [ null, %14 ]
  ret ptr %.0
}